; Function Attrs: nounwind uwtable
define internal zeroext i1 @HIDAPI_DriverSteamHori_InitDevice(ptr noundef %0) #0 {
  %2 = tail call noalias dereferenceable_or_null(80) ptr @SDL_calloc_REAL(i64 noundef 1, i64 noundef 80) #10
  %.not = icmp eq ptr %2, null
  br i1 %.not, label %7, label %3

3:                                                ; preds = %1
  %4 = getelementptr inbounds nuw i8, ptr %0, i64 112
  store ptr %2, ptr %4, align 8
  %5 = getelementptr inbounds nuw i8, ptr %2, i64 77
  store i8 1, ptr %5, align 1
  tail call void @HIDAPI_SetDeviceName(ptr noundef %0, ptr noundef nonnull @.str.2) #9
  %6 = tail call zeroext i1 @HIDAPI_JoystickConnected(ptr noundef %0, ptr noundef null) #9
  br label %7

7:                                                ; preds = %1, %3
  %.0 = phi i1 [ %6, %3 ], [ false, %1 ]
  ret i1 %.0
}